target datalayout = "e-m:e-p270:32:32-p271:32:32-p272:64:64-i64:64-i128:128-f80:128-n8:16:32:64-S128"
target triple = "x86_64-pc-linux-gnu"

%struct.Kit_DsdNtk_t_ = type { i16, i16, i16, i16, ptr, ptr, ptr }

; Function Attrs: nounwind uwtable
define i32 @Kit_DsdCountAigNodes(ptr noundef %0) #0 {
  %2 = alloca ptr, align 8
  %3 = alloca ptr, align 8
  %4 = alloca i32, align 4
  %5 = alloca i32, align 4
  store ptr %0, ptr %2, align 8, !tbaa !37
  call void @llvm.lifetime.start.p0(i64 8, ptr %3) #9
  call void @llvm.lifetime.start.p0(i64 4, ptr %4) #9
  call void @llvm.lifetime.start.p0(i64 4, ptr %5) #9
  store i32 0, ptr %5, align 4, !tbaa !3
  store i32 0, ptr %4, align 4, !tbaa !3
  br label %6

6:                                                ; preds = %59, %1
  %7 = load i32, ptr %4, align 4, !tbaa !3
  %8 = load ptr, ptr %2, align 8, !tbaa !37
  %9 = getelementptr inbounds nuw %struct.Kit_DsdNtk_t_, ptr %8, i32 0, i32 2
  %10 = load i16, ptr %9, align 4, !tbaa !45
  %11 = zext i16 %10 to i32
  %12 = icmp slt i32 %7, %11
  br i1 %12, label %13, label %62

13:                                               ; preds = %6
  %14 = load ptr, ptr %2, align 8, !tbaa !37
  %15 = getelementptr inbounds nuw %struct.Kit_DsdNtk_t_, ptr %14, i32 0, i32 6
  %16 = load ptr, ptr %15, align 8, !tbaa !47
  %17 = load i32, ptr %4, align 4, !tbaa !3
  %18 = sext i32 %17 to i64
  %19 = getelementptr inbounds ptr, ptr %16, i64 %18
  %20 = load ptr, ptr %19, align 8, !tbaa !39
  store ptr %20, ptr %3, align 8, !tbaa !39
  %21 = load ptr, ptr %3, align 8, !tbaa !39
  %22 = load i32, ptr %21, align 4
  %23 = lshr i32 %22, 6
  %24 = and i32 %23, 7
  %25 = icmp eq i32 %24, 3
  br i1 %25, label %26, label %33

26:                                               ; preds = %13
  %27 = load ptr, ptr %3, align 8, !tbaa !39
  %28 = load i32, ptr %27, align 4
  %29 = lshr i32 %28, 26
  %30 = sub nsw i32 %29, 1
  %31 = load i32, ptr %5, align 4, !tbaa !3
  %32 = add nsw i32 %31, %30
  store i32 %32, ptr %5, align 4, !tbaa !3
  br label %58

33:                                               ; preds = %13
  %34 = load ptr, ptr %3, align 8, !tbaa !39
  %35 = load i32, ptr %34, align 4
  %36 = lshr i32 %35, 6
  %37 = and i32 %36, 7
  %38 = icmp eq i32 %37, 4
  br i1 %38, label %39, label %47

39:                                               ; preds = %33
  %40 = load ptr, ptr %3, align 8, !tbaa !39
  %41 = load i32, ptr %40, align 4
  %42 = lshr i32 %41, 26
  %43 = sub nsw i32 %42, 1
  %44 = mul nsw i32 %43, 3
  %45 = load i32, ptr %5, align 4, !tbaa !3
  %46 = add nsw i32 %45, %44
  store i32 %46, ptr %5, align 4, !tbaa !3
  br label %57

47:                                               ; preds = %33
  %48 = load ptr, ptr %3, align 8, !tbaa !39
  %49 = load i32, ptr %48, align 4
  %50 = lshr i32 %49, 6
  %51 = and i32 %50, 7
  %52 = icmp eq i32 %51, 5
  br i1 %52, label %53, label %56

53:                                               ; preds = %47
  %54 = load i32, ptr %5, align 4, !tbaa !3
  %55 = add nsw i32 %54, 3
  store i32 %55, ptr %5, align 4, !tbaa !3
  br label %56

56:                                               ; preds = %53, %47
  br label %57

57:                                               ; preds = %56, %39
  br label %58

58:                                               ; preds = %57, %26
  br label %59

59:                                               ; preds = %58
  %60 = load i32, ptr %4, align 4, !tbaa !3
  %61 = add nsw i32 %60, 1
  store i32 %61, ptr %4, align 4, !tbaa !3
  br label %6, !llvm.loop !124

62:                                               ; preds = %6
  %63 = load i32, ptr %5, align 4, !tbaa !3
  call void @llvm.lifetime.end.p0(i64 4, ptr %5) #9
  call void @llvm.lifetime.end.p0(i64 4, ptr %4) #9
  call void @llvm.lifetime.end.p0(i64 8, ptr %3) #9
  ret i32 %63
}