; Function Attrs: nofree norecurse nosync nounwind memory(read, inaccessiblemem: none) uwtable
define i32 @Kit_DsdCountAigNodes(ptr noundef readonly captures(none) %0) local_unnamed_addr #16 {
  %2 = getelementptr inbounds nuw i8, ptr %0, i64 4
  %3 = load i16, ptr %2, align 4, !tbaa !38
  %.not = icmp eq i16 %3, 0
  br i1 %.not, label %._crit_edge, label %.lr.ph

.lr.ph:                                           ; preds = %1
  %4 = getelementptr inbounds nuw i8, ptr %0, i64 24
  %5 = load ptr, ptr %4, align 8, !tbaa !40
  %wide.trip.count = zext i16 %3 to i64
  br label %6

6:                                                ; preds = %.lr.ph, %23
  %indvars.iv = phi i64 [ 0, %.lr.ph ], [ %indvars.iv.next, %23 ]
  %.016 = phi i32 [ 0, %.lr.ph ], [ %.1, %23 ]
  %7 = getelementptr inbounds nuw ptr, ptr %5, i64 %indvars.iv
  %8 = load ptr, ptr %7, align 8, !tbaa !41
  %9 = load i32, ptr %8, align 4
  %10 = lshr i32 %9, 6
  %11 = and i32 %10, 7
  switch i32 %11, label %23 [
    i32 3, label %12
    i32 4, label %16
    i32 5, label %21
  ]

12:                                               ; preds = %6
  %13 = lshr i32 %9, 26
  %14 = add i32 %.016, -1
  %15 = add i32 %14, %13
  br label %23

16:                                               ; preds = %6
  %17 = lshr i32 %9, 26
  %18 = mul nuw nsw i32 %17, 3
  %19 = add i32 %.016, -3
  %20 = add i32 %19, %18
  br label %23

21:                                               ; preds = %6
  %22 = add nsw i32 %.016, 3
  br label %23

23:                                               ; preds = %6, %12, %21, %16
  %.1 = phi i32 [ %15, %12 ], [ %20, %16 ], [ %22, %21 ], [ %.016, %6 ]
  %indvars.iv.next = add nuw nsw i64 %indvars.iv, 1
  %exitcond.not = icmp eq i64 %indvars.iv.next, %wide.trip.count
  br i1 %exitcond.not, label %._crit_edge, label %6, !llvm.loop !113

._crit_edge:                                      ; preds = %23, %1
  %.0.lcssa = phi i32 [ 0, %1 ], [ %.1, %23 ]
  ret i32 %.0.lcssa
}